target datalayout = "e-m:e-p270:32:32-p271:32:32-p272:64:64-i64:64-i128:128-f80:128-n8:16:32:64-S128"
target triple = "x86_64-pc-linux-gnu"

%struct.ItemPointerData = type { %struct.BlockIdData, i16 }
%struct.BlockIdData = type { i16, i16 }
%struct.BTScanOpaqueData = type { i8, i32, ptr, i32, i8, i8, i8, ptr, ptr, ptr, ptr, i32, ptr, ptr, i32, %struct.BTScanPosData, %struct.BTScanPosData }
%struct.BTScanPosData = type { i32, i32, i32, i32, i64, i32, i32, i8, i8, i32, i32, i32, [1358 x %struct.BTScanPosItem] }
%struct.BTScanPosItem = type { %struct.ItemPointerData, i16, i16 }
%struct.IndexScanDescData = type { ptr, ptr, ptr, i32, i32, ptr, ptr, i8, i8, i8, i8, i8, ptr, ptr, ptr, ptr, ptr, %struct.ItemPointerData, i8, ptr, i8, ptr, ptr, i8, ptr }

; Function Attrs: inlinehint nounwind uwtable
define internal zeroext i1 @BlockNumberIsValid(i32 noundef %0) #2 {
  %2 = alloca i32, align 4
  store i32 %0, ptr %2, align 4
  %3 = load i32, ptr %2, align 4
  %4 = icmp ne i32 %3, -1
  ret i1 %4
}

; Function Attrs: nounwind uwtable
define dso_local zeroext i1 @btgettuple(ptr noundef %0, i32 noundef %1) #0 {
  %3 = alloca ptr, align 8
  %4 = alloca i32, align 4
  %5 = alloca ptr, align 8
  %6 = alloca i8, align 1
  store ptr %0, ptr %3, align 8
  store i32 %1, ptr %4, align 4
  call void @llvm.lifetime.start.p0(i64 8, ptr %5) #8
  %7 = load ptr, ptr %3, align 8
  %8 = getelementptr inbounds nuw %struct.IndexScanDescData, ptr %7, i32 0, i32 12
  %9 = load ptr, ptr %8, align 8
  store ptr %9, ptr %5, align 8
  call void @llvm.lifetime.start.p0(i64 1, ptr %6) #8
  %10 = load ptr, ptr %3, align 8
  %11 = getelementptr inbounds nuw %struct.IndexScanDescData, ptr %10, i32 0, i32 20
  store i8 0, ptr %11, align 8
  br label %12

12:                                               ; preds = %76, %2
  %13 = load ptr, ptr %5, align 8
  %14 = getelementptr inbounds nuw %struct.BTScanOpaqueData, ptr %13, i32 0, i32 15
  %15 = getelementptr inbounds nuw %struct.BTScanPosData, ptr %14, i32 0, i32 1
  %16 = load i32, ptr %15, align 4
  %17 = call zeroext i1 @BlockNumberIsValid(i32 noundef %16)
  br i1 %17, label %23, label %18

18:                                               ; preds = %12
  %19 = load ptr, ptr %3, align 8
  %20 = load i32, ptr %4, align 4
  %21 = call zeroext i1 @_bt_first(ptr noundef %19, i32 noundef %20)
  %22 = zext i1 %21 to i8
  store i8 %22, ptr %6, align 1
  br label %62

23:                                               ; preds = %12
  %24 = load ptr, ptr %3, align 8
  %25 = getelementptr inbounds nuw %struct.IndexScanDescData, ptr %24, i32 0, i32 9
  %26 = load i8, ptr %25, align 2, !range !4, !noundef !5
  %27 = trunc i8 %26 to i1
  br i1 %27, label %28, label %57

28:                                               ; preds = %23
  %29 = load ptr, ptr %5, align 8
  %30 = getelementptr inbounds nuw %struct.BTScanOpaqueData, ptr %29, i32 0, i32 10
  %31 = load ptr, ptr %30, align 8
  %32 = icmp eq ptr %31, null
  br i1 %32, label %33, label %37

33:                                               ; preds = %28
  %34 = call ptr @palloc(i64 noundef 5432)
  %35 = load ptr, ptr %5, align 8
  %36 = getelementptr inbounds nuw %struct.BTScanOpaqueData, ptr %35, i32 0, i32 10
  store ptr %34, ptr %36, align 8
  br label %37

37:                                               ; preds = %33, %28
  %38 = load ptr, ptr %5, align 8
  %39 = getelementptr inbounds nuw %struct.BTScanOpaqueData, ptr %38, i32 0, i32 11
  %40 = load i32, ptr %39, align 8
  %41 = icmp slt i32 %40, 1358
  br i1 %41, label %42, label %56

42:                                               ; preds = %37
  %43 = load ptr, ptr %5, align 8
  %44 = getelementptr inbounds nuw %struct.BTScanOpaqueData, ptr %43, i32 0, i32 15
  %45 = getelementptr inbounds nuw %struct.BTScanPosData, ptr %44, i32 0, i32 11
  %46 = load i32, ptr %45, align 4
  %47 = load ptr, ptr %5, align 8
  %48 = getelementptr inbounds nuw %struct.BTScanOpaqueData, ptr %47, i32 0, i32 10
  %49 = load ptr, ptr %48, align 8
  %50 = load ptr, ptr %5, align 8
  %51 = getelementptr inbounds nuw %struct.BTScanOpaqueData, ptr %50, i32 0, i32 11
  %52 = load i32, ptr %51, align 8
  %53 = add i32 %52, 1
  store i32 %53, ptr %51, align 8
  %54 = sext i32 %52 to i64
  %55 = getelementptr inbounds i32, ptr %49, i64 %54
  store i32 %46, ptr %55, align 4
  br label %56

56:                                               ; preds = %42, %37
  br label %57

57:                                               ; preds = %56, %23
  %58 = load ptr, ptr %3, align 8
  %59 = load i32, ptr %4, align 4
  %60 = call zeroext i1 @_bt_next(ptr noundef %58, i32 noundef %59)
  %61 = zext i1 %60 to i8
  store i8 %61, ptr %6, align 1
  br label %62

62:                                               ; preds = %57, %18
  %63 = load i8, ptr %6, align 1, !range !4, !noundef !5
  %64 = trunc i8 %63 to i1
  br i1 %64, label %65, label %66

65:                                               ; preds = %62
  br label %78

66:                                               ; preds = %62
  br label %67

67:                                               ; preds = %66
  %68 = load ptr, ptr %5, align 8
  %69 = getelementptr inbounds nuw %struct.BTScanOpaqueData, ptr %68, i32 0, i32 3
  %70 = load i32, ptr %69, align 8
  %71 = icmp ne i32 %70, 0
  br i1 %71, label %72, label %76

72:                                               ; preds = %67
  %73 = load ptr, ptr %3, align 8
  %74 = load i32, ptr %4, align 4
  %75 = call zeroext i1 @_bt_start_prim_scan(ptr noundef %73, i32 noundef %74)
  br label %76

76:                                               ; preds = %72, %67
  %77 = phi i1 [ false, %67 ], [ %75, %72 ]
  br i1 %77, label %12, label %78, !llvm.loop !6

78:                                               ; preds = %76, %65
  %79 = load i8, ptr %6, align 1, !range !4, !noundef !5
  %80 = trunc i8 %79 to i1
  call void @llvm.lifetime.end.p0(i64 1, ptr %6) #8
  call void @llvm.lifetime.end.p0(i64 8, ptr %5) #8
  ret i1 %80
}