; Function Attrs: nounwind uwtable
define dso_local noundef zeroext i1 @btgettuple(ptr noundef initializes((112, 113)) %0, i32 noundef %1) #0 {
  %3 = getelementptr inbounds nuw i8, ptr %0, i64 56
  %4 = load ptr, ptr %3, align 8
  %5 = getelementptr inbounds nuw i8, ptr %0, i64 112
  store i8 0, ptr %5, align 8
  %6 = getelementptr inbounds nuw i8, ptr %4, i64 92
  %7 = getelementptr inbounds nuw i8, ptr %0, i64 50
  %8 = getelementptr inbounds nuw i8, ptr %4, i64 48
  %9 = getelementptr inbounds nuw i8, ptr %4, i64 56
  %10 = getelementptr inbounds nuw i8, ptr %4, i64 132
  %11 = getelementptr inbounds nuw i8, ptr %4, i64 16
  br label %12

12:                                               ; preds = %37, %2
  %13 = load i32, ptr %6, align 4
  %.not21 = icmp eq i32 %13, -1
  br i1 %.not21, label %33, label %14

14:                                               ; preds = %12
  %15 = load i8, ptr %7, align 2, !range !4, !noundef !5
  %16 = trunc nuw i8 %15 to i1
  br i1 %16, label %17, label %31

17:                                               ; preds = %14
  %18 = load ptr, ptr %8, align 8
  %19 = icmp eq ptr %18, null
  br i1 %19, label %20, label %22

20:                                               ; preds = %17
  %21 = tail call ptr @palloc(i64 noundef 5432) #8
  store ptr %21, ptr %8, align 8
  br label %22

22:                                               ; preds = %20, %17
  %23 = phi ptr [ %21, %20 ], [ %18, %17 ]
  %24 = load i32, ptr %9, align 8
  %25 = icmp slt i32 %24, 1358
  br i1 %25, label %26, label %31

26:                                               ; preds = %22
  %27 = load i32, ptr %10, align 4
  %28 = add nsw i32 %24, 1
  store i32 %28, ptr %9, align 8
  %29 = sext i32 %24 to i64
  %30 = getelementptr inbounds i32, ptr %23, i64 %29
  store i32 %27, ptr %30, align 4
  br label %31

31:                                               ; preds = %22, %26, %14
  %32 = tail call zeroext i1 @_bt_next(ptr noundef nonnull %0, i32 noundef %1) #8
  br i1 %32, label %.critedge, label %35

33:                                               ; preds = %12
  %34 = tail call zeroext i1 @_bt_first(ptr noundef %0, i32 noundef %1) #8
  br i1 %34, label %.critedge, label %35

35:                                               ; preds = %31, %33
  %36 = load i32, ptr %11, align 8
  %.not = icmp eq i32 %36, 0
  br i1 %.not, label %.critedge, label %37

37:                                               ; preds = %35
  %38 = tail call zeroext i1 @_bt_start_prim_scan(ptr noundef %0, i32 noundef %1) #8
  br i1 %38, label %12, label %.critedge, !llvm.loop !6

.critedge:                                        ; preds = %31, %35, %33, %37
  %.0.in20 = phi i1 [ true, %31 ], [ false, %35 ], [ true, %33 ], [ false, %37 ]
  ret i1 %.0.in20
}